target datalayout = "e-m:e-p270:32:32-p271:32:32-p272:64:64-i64:64-i128:128-f80:128-n8:16:32:64-S128"
target triple = "x86_64-pc-linux-gnu"

%struct.ForeignScan = type { %struct.Scan, i32, i32, i32, i32, ptr, ptr, ptr, ptr, ptr, ptr, i8 }
%struct.Scan = type { %struct.Plan, i32 }
%struct.Plan = type { i32, i32, double, double, double, i32, i8, i8, i8, i32, ptr, ptr, ptr, ptr, ptr, ptr, ptr }
%struct.ForeignScanState = type { %struct.ScanState, ptr, i64, ptr, ptr, ptr }
%struct.ScanState = type { %struct.PlanState, ptr, ptr, ptr }
%struct.PlanState = type { i32, ptr, ptr, ptr, ptr, ptr, ptr, ptr, ptr, ptr, ptr, ptr, ptr, ptr, ptr, ptr, ptr, ptr, i8, ptr, ptr, ptr, ptr, ptr, i8, i8, i8, i8, i8, i8, i8, i8 }
%struct.EState = type { i32, i32, ptr, ptr, ptr, i32, ptr, ptr, ptr, ptr, ptr, ptr, ptr, ptr, ptr, ptr, i32, ptr, ptr, ptr, ptr, ptr, ptr, ptr, ptr, ptr, ptr, i64, i64, i32, i32, i8, ptr, ptr, ptr, ptr, ptr, i8, i32, i32, ptr, i32, ptr, ptr, ptr, ptr }
%struct.FdwRoutine = type { i32, ptr, ptr, ptr, ptr, ptr, ptr, ptr, ptr, ptr, ptr, ptr, ptr, ptr, ptr, ptr, ptr, ptr, ptr, ptr, ptr, ptr, ptr, ptr, ptr, ptr, ptr, ptr, ptr, ptr, ptr, ptr, ptr, ptr, ptr, ptr, ptr, ptr, ptr, ptr, ptr, ptr, ptr, ptr, ptr, ptr }

; Function Attrs: nounwind uwtable
define dso_local void @ExecEndForeignScan(ptr noundef %0) #0 {
  %2 = alloca ptr, align 8
  %3 = alloca ptr, align 8
  %4 = alloca ptr, align 8
  store ptr %0, ptr %2, align 8
  call void @llvm.lifetime.start.p0(i64 8, ptr %3) #5
  %5 = load ptr, ptr %2, align 8
  %6 = getelementptr inbounds nuw %struct.ForeignScanState, ptr %5, i32 0, i32 0
  %7 = getelementptr inbounds nuw %struct.ScanState, ptr %6, i32 0, i32 0
  %8 = getelementptr inbounds nuw %struct.PlanState, ptr %7, i32 0, i32 1
  %9 = load ptr, ptr %8, align 8
  store ptr %9, ptr %3, align 8
  call void @llvm.lifetime.start.p0(i64 8, ptr %4) #5
  %10 = load ptr, ptr %2, align 8
  %11 = getelementptr inbounds nuw %struct.ForeignScanState, ptr %10, i32 0, i32 0
  %12 = getelementptr inbounds nuw %struct.ScanState, ptr %11, i32 0, i32 0
  %13 = getelementptr inbounds nuw %struct.PlanState, ptr %12, i32 0, i32 2
  %14 = load ptr, ptr %13, align 8
  store ptr %14, ptr %4, align 8
  %15 = load ptr, ptr %3, align 8
  %16 = getelementptr inbounds nuw %struct.ForeignScan, ptr %15, i32 0, i32 1
  %17 = load i32, ptr %16, align 8
  %18 = icmp ne i32 %17, 1
  br i1 %18, label %19, label %32

19:                                               ; preds = %1
  %20 = load ptr, ptr %4, align 8
  %21 = getelementptr inbounds nuw %struct.EState, ptr %20, i32 0, i32 36
  %22 = load ptr, ptr %21, align 8
  %23 = icmp eq ptr %22, null
  br i1 %23, label %24, label %31

24:                                               ; preds = %19
  %25 = load ptr, ptr %2, align 8
  %26 = getelementptr inbounds nuw %struct.ForeignScanState, ptr %25, i32 0, i32 4
  %27 = load ptr, ptr %26, align 8
  %28 = getelementptr inbounds nuw %struct.FdwRoutine, ptr %27, i32 0, i32 25
  %29 = load ptr, ptr %28, align 8
  %30 = load ptr, ptr %2, align 8
  call void %29(ptr noundef %30)
  br label %31

31:                                               ; preds = %24, %19
  br label %39

32:                                               ; preds = %1
  %33 = load ptr, ptr %2, align 8
  %34 = getelementptr inbounds nuw %struct.ForeignScanState, ptr %33, i32 0, i32 4
  %35 = load ptr, ptr %34, align 8
  %36 = getelementptr inbounds nuw %struct.FdwRoutine, ptr %35, i32 0, i32 7
  %37 = load ptr, ptr %36, align 8
  %38 = load ptr, ptr %2, align 8
  call void %37(ptr noundef %38)
  br label %39

39:                                               ; preds = %32, %31
  %40 = load ptr, ptr %2, align 8
  %41 = getelementptr inbounds nuw %struct.PlanState, ptr %40, i32 0, i32 9
  %42 = load ptr, ptr %41, align 8
  %43 = icmp ne ptr %42, null
  br i1 %43, label %44, label %48

44:                                               ; preds = %39
  %45 = load ptr, ptr %2, align 8
  %46 = getelementptr inbounds nuw %struct.PlanState, ptr %45, i32 0, i32 9
  %47 = load ptr, ptr %46, align 8
  call void @ExecEndNode(ptr noundef %47)
  br label %48

48:                                               ; preds = %44, %39
  call void @llvm.lifetime.end.p0(i64 8, ptr %4) #5
  call void @llvm.lifetime.end.p0(i64 8, ptr %3) #5
  ret void
}