; Function Attrs: nounwind uwtable
define dso_local void @ExecEndForeignScan(ptr noundef %0) local_unnamed_addr #0 {
  %2 = getelementptr inbounds nuw i8, ptr %0, i64 8
  %3 = load ptr, ptr %2, align 8
  %4 = getelementptr inbounds nuw i8, ptr %3, i64 112
  %5 = load i32, ptr %4, align 8
  %.not = icmp eq i32 %5, 1
  br i1 %.not, label %.sink.split, label %6

6:                                                ; preds = %1
  %7 = getelementptr inbounds nuw i8, ptr %0, i64 16
  %8 = load ptr, ptr %7, align 8
  %9 = getelementptr inbounds nuw i8, ptr %8, i64 272
  %10 = load ptr, ptr %9, align 8
  %11 = icmp eq ptr %10, null
  br i1 %11, label %.sink.split, label %16

.sink.split:                                      ; preds = %1, %6
  %.sink12 = phi i64 [ 200, %6 ], [ 56, %1 ]
  %12 = getelementptr inbounds nuw i8, ptr %0, i64 248
  %13 = load ptr, ptr %12, align 8
  %14 = getelementptr inbounds nuw i8, ptr %13, i64 %.sink12
  %15 = load ptr, ptr %14, align 8
  tail call void %15(ptr noundef nonnull %0) #5
  br label %16

16:                                               ; preds = %.sink.split, %6
  %17 = getelementptr inbounds nuw i8, ptr %0, i64 72
  %18 = load ptr, ptr %17, align 8
  %.not10 = icmp eq ptr %18, null
  br i1 %.not10, label %20, label %19

19:                                               ; preds = %16
  tail call void @ExecEndNode(ptr noundef nonnull %18) #5
  br label %20

20:                                               ; preds = %19, %16
  ret void
}